; Function Attrs: nounwind sspstrong uwtable
define dso_local range(i64 0, 21) i64 @rb_equal(i64 noundef %0, i64 noundef %1) #2 {
  %3 = icmp eq i64 %0, %1
  br i1 %3, label %12, label %4

4:                                                ; preds = %2
  %5 = tail call i64 @rb_equal_opt(i64 noundef %0, i64 noundef %1) #23
  %6 = icmp eq i64 %5, 36
  br i1 %6, label %7, label %9

7:                                                ; preds = %4
  %8 = tail call i64 (i64, i64, i32, ...) @rb_funcall(i64 noundef %0, i64 noundef 140, i32 noundef 1, i64 noundef %1) #23
  br label %9

9:                                                ; preds = %7, %4
  %.0 = phi i64 [ %8, %7 ], [ %5, %4 ]
  %10 = and i64 %.0, -5
  %.not = icmp eq i64 %10, 0
  %11 = select i1 %.not, i64 0, i64 20
  br label %12

12:                                               ; preds = %2, %9
  %.09 = phi i64 [ %11, %9 ], [ 20, %2 ]
  ret i64 %.09
}